Certificate:
    Data:
        Version: 3 (0x2)
        Serial Number: 1 (0x1)
        Signature Algorithm: sha256WithRSAEncryption
        Issuer: C=IN, ST=VR, O=VIOT, OU=IT, CN=subCSR
        Validity
            Not Before: Oct 27 09:30:32 2022 GMT
            Not After : Oct 27 09:30:32 2023 GMT
        Subject: C=IN, ST=VR, O=VIOT, OU=IT, CN=www.prashantplanet.com
        Subject Public Key Info:
            Public Key Algorithm: rsaEncryption
                RSA Public-Key: (4096 bit)
                Modulus:
                    00:b2:be:c6:1f:9a:72:9c:70:78:6e:bf:d5:57:d2:
                    9e:78:d7:8b:dd:ec:11:5d:0e:28:42:ae:c2:95:2e:
                    55:f3:23:f1:8e:f8:77:28:73:b6:f0:26:26:27:23:
                    51:7f:25:ea:63:12:07:3c:28:fe:05:a6:07:e3:b7:
                    dd:35:6b:01:5d:8c:b3:c6:da:91:36:3f:90:3d:5b:
                    d9:00:dd:2b:df:5a:71:6b:62:1c:de:7a:7a:0d:d2:
                    af:6f:44:58:4d:ca:9f:10:df:10:54:2d:02:bd:58:
                    08:3a:ab:79:55:d2:5b:be:d1:4d:5a:0a:02:ac:fb:
                    bd:bd:6b:fa:d9:94:1f:d5:c2:d7:93:ab:96:79:6e:
                    2c:a9:8a:f5:27:36:c8:2a:0b:7e:6d:a3:2f:96:06:
                    7b:f1:56:1c:1e:ae:73:0d:48:e9:8b:ce:d7:59:ca:
                    2f:95:c1:a0:4c:2d:c9:32:d3:76:93:03:25:69:2b:
                    f6:6e:d4:7d:b3:4c:3e:62:89:50:4e:19:b0:44:b6:
                    3b:eb:cd:5c:01:16:b1:fb:c0:ef:10:a2:9a:8b:46:
                    22:b9:d5:4a:c0:e7:24:bb:da:e6:47:9e:b8:8f:56:
                    f0:aa:f0:1c:93:ea:be:08:40:04:ff:42:15:3d:69:
                    e6:1a:91:ed:b8:58:65:90:93:53:79:89:ca:d8:40:
                    fc:d3:88:5b:18:f9:6b:2d:8c:5b:cd:64:00:52:30:
                    ce:2a:8d:45:33:be:84:93:76:25:4c:97:c8:71:d4:
                    e7:f2:43:88:36:66:ce:5e:66:56:05:41:8c:58:73:
                    fe:98:ff:bc:74:82:a4:07:4b:f2:fb:2b:87:41:28:
                    4f:75:0c:fa:e9:44:d7:ca:53:72:ff:eb:4c:91:b2:
                    92:d6:33:7f:2c:92:19:b6:d7:c1:73:f2:44:b1:13:
                    02:db:ab:59:a2:2b:51:ed:30:6e:3a:af:db:73:06:
                    23:38:7e:43:79:a4:e1:d0:03:18:f1:ee:1f:db:14:
                    53:45:87:67:c2:92:3b:63:60:e9:09:e2:91:be:45:
                    e6:fb:de:e7:dd:b7:a7:13:90:3b:4e:a8:60:e8:af:
                    e9:f6:50:50:48:ae:c4:d2:35:d3:ad:d1:d8:55:da:
                    03:1b:32:c4:a7:09:dd:89:c5:29:bc:34:c1:a7:77:
                    26:8d:9a:e3:77:83:b7:d0:f9:15:be:af:e4:aa:41:
                    a1:ef:83:44:ed:6d:dc:ce:75:c0:93:35:2d:2c:c4:
                    2f:84:07:41:b4:8d:42:e5:6a:e7:28:ef:f1:b7:6f:
                    e8:ef:cb:66:61:82:8a:88:30:02:50:4f:f2:2c:8c:
                    b8:0e:48:b0:da:9f:f8:dc:ec:26:80:90:c4:f6:1c:
                    01:b0:15
                Exponent: 65537 (0x10001)
        X509v3 extensions:
            X509v3 Basic Constraints: 
                CA:FALSE
            X509v3 Key Usage: 
                Digital Signature, Non Repudiation, Key Encipherment
    Signature Algorithm: sha256WithRSAEncryption
         8e:ba:2b:09:16:e8:97:e3:dc:56:19:4d:d1:f9:23:9c:c0:e6:
         9a:ed:aa:d7:0a:97:09:9c:00:35:5f:f1:a5:9c:df:d7:12:6e:
         c3:52:94:31:18:7e:bc:49:fd:2c:5f:3b:dc:d6:4a:8e:46:a9:
         f0:54:e8:72:e8:d2:7a:55:1a:79:09:2f:1f:eb:49:6f:53:17:
         09:2d:4e:8c:c4:1f:8c:5f:76:71:d5:d6:f2:e9:e9:8e:0d:c7:
         63:8e:91:98:f0:ec:ee:ee:ee:03:f9:b3:ae:c0:58:08:ad:c6:
         25:a7:5f:d9:6e:7d:6f:d9:67:fb:ff:79:d8:e3:59:38:bf:ae:
         43:f7:a2:ca:1b:e5:7a:ed:c8:77:46:e3:8d:1b:4f:e3:71:e6:
         41:fb:7c:9b:e3:00:1a:88:32:0a:ed:d7:38:76:ff:dd:99:ce:
         91:7f:e9:90:fe:c6:fb:fc:b2:28:4c:f9:0d:7c:cb:e8:0c:07:
         54:e7:6c:ea:b2:dd:11:32:d8:2f:66:34:ed:37:1f:e5:d4:90:
         33:d5:4c:73:57:9d:f8:cd:e7:ef:07:14:8c:68:b3:e0:5f:14:
         2d:09:57:b1:9a:5f:bc:69:74:14:67:e0:cd:bc:6f:78:0c:7e:
         94:5a:ca:79:53:92:5c:5b:31:99:ea:91:08:5e:33:d6:1a:eb:
         61:71:43:10:dd:0b:cc:91:e0:a7:ad:ce:2a:1a:71:85:ca:df:
         f2:d5:fc:ac:e2:0c:70:41:61:96:ca:49:25:51:3d:95:a4:5b:
         d8:9b:b9:0c:89:86:48:b7:a5:b9:cb:fa:a6:3a:90:8c:f1:3d:
         e8:a9:dd:44:7d:73:60:a7:c4:db:db:c6:2f:e8:79:04:e1:6b:
         de:ac:b4:79:c4:99:fd:8b:6c:85:26:12:13:8e:c9:eb:e7:bd:
         f7:cc:da:4c:47:c4:0b:86:6b:a6:26:65:e4:e0:bf:f5:2c:bd:
         51:d4:a5:f3:ec:72:ba:47:3f:6a:71:99:9d:73:e8:56:0c:ba:
         ae:a6:37:96:f0:5d:e6:ce:3e:ad:33:85:7f:7b:50:e9:ec:fb:
         68:85:37:70:7d:8d:c8:92:00:46:e2:ad:2c:67:d8:f9:26:ed:
         16:ed:a7:66:11:cf:9f:c2:1a:92:cd:55:28:53:c3:4b:6b:c4:
         b9:2f:37:a9:58:da:76:a3:3d:50:aa:ea:4e:ed:6e:46:81:a8:
         7b:85:e9:86:81:1e:b7:29:a5:b5:86:43:68:59:6f:67:0d:e0:
         62:0b:6e:06:46:e7:06:96:fc:d8:9b:74:3a:a0:e0:ee:69:2d:
         31:24:d6:25:40:99:05:c4:99:02:8b:e6:a2:52:34:8d:68:86:
         86:57:56:d7:ea:91:3c:22
-----BEGIN CERTIFICATE-----
MIIFMzCCAxugAwIBAgIBATANBgkqhkiG9w0BAQsFADBHMQswCQYDVQQGEwJJTjEL
MAkGA1UECAwCVlIxDTALBgNVBAoMBFZJT1QxCzAJBgNVBAsMAklUMQ8wDQYDVQQD
DAZzdWJDU1IwHhcNMjIxMDI3MDkzMDMyWhcNMjMxMDI3MDkzMDMyWjBXMQswCQYD
VQQGEwJJTjELMAkGA1UECAwCVlIxDTALBgNVBAoMBFZJT1QxCzAJBgNVBAsMAklU
MR8wHQYDVQQDDBZ3d3cucHJhc2hhbnRwbGFuZXQuY29tMIICIjANBgkqhkiG9w0B
AQEFAAOCAg8AMIICCgKCAgEAsr7GH5pynHB4br/VV9KeeNeL3ewRXQ4oQq7ClS5V
8yPxjvh3KHO28CYmJyNRfyXqYxIHPCj+BaYH47fdNWsBXYyzxtqRNj+QPVvZAN0r
31pxa2Ic3np6DdKvb0RYTcqfEN8QVC0CvVgIOqt5VdJbvtFNWgoCrPu9vWv62ZQf
1cLXk6uWeW4sqYr1JzbIKgt+baMvlgZ78VYcHq5zDUjpi87XWcovlcGgTC3JMtN2
kwMlaSv2btR9s0w+YolQThmwRLY7681cARax+8DvEKKai0YiudVKwOcku9rmR564
j1bwqvAck+q+CEAE/0IVPWnmGpHtuFhlkJNTeYnK2ED804hbGPlrLYxbzWQAUjDO
Ko1FM76Ek3YlTJfIcdTn8kOINmbOXmZWBUGMWHP+mP+8dIKkB0vy+yuHQShPdQz6
6UTXylNy/+tMkbKS1jN/LJIZttfBc/JEsRMC26tZoitR7TBuOq/bcwYjOH5DeaTh
0AMY8e4f2xRTRYdnwpI7Y2DpCeKRvkXm+97n3benE5A7Tqhg6K/p9lBQSK7E0jXT
rdHYVdoDGzLEpwndicUpvDTBp3cmjZrjd4O30PkVvq/kqkGh74NE7W3cznXAkzUt
LMQvhAdBtI1C5WrnKO/xt2/o78tmYYKKiDACUE/yLIy4Dkiw2p/43OwmgJDE9hwB
sBUCAwEAAaMaMBgwCQYDVR0TBAIwADALBgNVHQ8EBAMCBeAwDQYJKoZIhvcNAQEL
BQADggIBAI66KwkW6Jfj3FYZTdH5I5zA5prtqtcKlwmcADVf8aWc39cSbsNSlDEY
frxJ/SxfO9zWSo5GqfBU6HLo0npVGnkJLx/rSW9TFwktTozEH4xfdnHV1vLp6Y4N
x2OOkZjw7O7u7gP5s67AWAitxiWnX9lufW/ZZ/v/edjjWTi/rkP3osob5XrtyHdG
440bT+Nx5kH7fJvjABqIMgrt1zh2/92ZzpF/6ZD+xvv8sihM+Q18y+gMB1TnbOqy
3REy2C9mNO03H+XUkDPVTHNXnfjN5+8HFIxos+BfFC0JV7GaX7xpdBRn4M28b3gM
fpRaynlTklxbMZnqkQheM9Ya62FxQxDdC8yR4KetzioacYXK3/LV/KziDHBBYZbK
SSVRPZWkW9ibuQyJhki3pbnL+qY6kIzxPeip3UR9c2CnxNvbxi/oeQTha96stHnE
mf2LbIUmEhOOyevnvffM2kxHxAuGa6YmZeTgv/UsvVHUpfPscrpHP2pxmZ1z6FYM
uq6mN5bwXebOPq0zhX97UOns+2iFN3B9jciSAEbirSxn2Pkm7Rbtp2YRz5/CGpLN
VShTw0trxLkvN6lY2najPVCq6k7tbkaBqHuF6YaBHrcppbWGQ2hZb2cN4GILbgZG
5waW/NibdDqg4O5pLTEk1iVAmQXEmQKL5qJSNI1ohoZXVtfqkTwi
-----END CERTIFICATE-----
