Certificate:
    Data:
        Version: 3 (0x2)
        Serial Number: 1 (0x1)
        Signature Algorithm: sha256WithRSAEncryption
        Issuer: C=IN, ST=VR, L=Agra, O=VIOT, CN=rootCA
        Validity
            Not Before: Oct 27 09:02:29 2022 GMT
            Not After : Oct 24 09:02:29 2032 GMT
        Subject: C=IN, ST=VR, O=VIOT, OU=IT, CN=subCSR
        Subject Public Key Info:
            Public Key Algorithm: rsaEncryption
                RSA Public-Key: (4096 bit)
                Modulus:
                    00:bc:b0:9f:77:fa:4e:52:7e:4e:be:2c:5a:fc:16:
                    db:4b:b2:e3:34:55:21:a8:ef:09:81:33:6b:46:69:
                    1b:80:43:8c:09:aa:a7:c9:0b:5e:36:ca:42:1c:7b:
                    19:92:68:17:5f:85:53:3a:22:0f:fc:3c:69:36:8f:
                    f3:68:23:63:a4:50:e5:f1:d4:46:69:aa:c2:42:7e:
                    4a:87:fa:70:3b:5e:15:00:fe:18:d6:64:c0:29:19:
                    0e:bc:07:a8:df:ab:07:53:d7:0d:75:73:7b:3c:25:
                    ce:2b:aa:b0:3f:0f:1c:f9:45:3b:0a:7c:c6:91:b5:
                    1d:16:27:a0:41:43:29:69:d3:67:f9:9d:44:aa:f8:
                    c7:a0:18:f1:10:23:1e:4e:58:55:61:5e:52:16:88:
                    f5:67:39:e0:2c:6c:03:d2:a0:34:a1:9a:cf:ac:86:
                    d5:56:fd:f0:e7:82:f7:37:ca:2b:ba:1c:6d:4d:71:
                    1e:94:82:3a:06:32:19:c8:c9:3c:5b:3a:c8:30:81:
                    b4:86:19:0c:73:39:55:2f:c7:2f:ae:9c:1b:56:8a:
                    78:33:e1:95:23:20:84:d8:ec:ae:2b:09:97:0c:6d:
                    89:bb:5c:b8:71:d9:37:d1:37:b3:c7:59:92:16:c9:
                    e8:11:f1:6a:88:20:8c:d3:83:fc:93:06:2c:76:7e:
                    3a:9d:9a:1e:2e:f5:bd:5e:e4:3c:2e:ea:47:f2:a0:
                    a0:87:da:03:7d:a8:46:a8:c8:17:6b:fa:f2:ab:1c:
                    2e:8c:94:e4:c0:b1:b7:71:53:c6:a4:02:aa:4a:ef:
                    58:8f:55:b7:0b:97:23:e6:99:1a:91:4a:fc:7e:3a:
                    15:73:84:d6:5b:74:22:15:4c:3b:41:dc:c9:a4:19:
                    86:d1:00:e4:09:b3:dd:1a:ea:16:bf:78:3c:eb:8b:
                    9e:4d:a0:97:cf:35:73:4a:c2:46:03:90:13:a6:e4:
                    47:9f:c8:63:ae:dc:e7:54:69:86:67:66:b2:27:4f:
                    7e:a6:26:79:1f:bc:31:b5:67:67:44:ba:c9:6c:a0:
                    3e:72:9c:85:f8:16:0a:03:89:66:a3:76:af:3e:d2:
                    1e:90:9f:24:97:19:63:ac:c1:b2:f8:cd:df:af:ce:
                    fc:5f:ae:2c:de:8e:90:a7:d3:04:1b:21:9e:e9:09:
                    5f:68:ec:6f:41:ea:bc:e9:c0:23:5c:d7:ba:8b:df:
                    8c:a7:4f:39:39:44:6e:76:bc:a5:42:97:2e:35:84:
                    72:c2:07:a3:f9:b1:7b:11:54:38:d6:68:72:66:3b:
                    1d:15:3f:c6:e1:e4:89:d2:b1:60:13:62:1b:3b:56:
                    9a:f2:e1:45:2b:92:fd:ab:aa:3a:f8:5f:87:6e:e3:
                    d5:ca:b5
                Exponent: 65537 (0x10001)
        X509v3 extensions:
            X509v3 Subject Key Identifier: 
                43:C0:23:AD:19:18:CE:4C:B2:53:30:19:E2:F0:F9:67:88:FB:21:46
            X509v3 Authority Key Identifier: 
                keyid:EC:7D:1F:A6:45:AB:EF:96:47:CE:28:1B:12:4E:1A:4E:FD:9B:A8:20

            X509v3 Basic Constraints: critical
                CA:TRUE, pathlen:0
    Signature Algorithm: sha256WithRSAEncryption
         c7:25:bf:1a:4d:67:db:66:70:b0:a5:85:ad:41:e5:e0:b2:88:
         b8:54:f2:14:21:d6:2e:c1:f0:de:ba:1a:4e:09:e9:f3:0c:26:
         92:1e:6f:bd:69:d2:9d:4c:30:1d:ff:df:42:6e:b8:d4:9a:11:
         4e:9e:04:52:25:74:96:1a:42:f4:0e:a3:fb:67:b4:16:e3:a0:
         4a:45:bd:7e:46:6f:f0:cc:4f:6c:a9:f5:b9:dc:f0:e5:15:5e:
         3d:02:2f:42:bd:29:29:27:0b:b1:03:99:b8:c9:20:94:bd:8c:
         b4:78:5d:73:88:61:b4:ab:1d:e0:26:9d:03:8e:e8:58:26:d5:
         69:eb:27:01:49:a0:26:65:69:b6:ec:92:97:7a:d5:90:79:0a:
         e0:3b:25:e2:5f:69:fd:2b:b3:a9:7d:e5:92:5b:7f:35:00:65:
         34:68:7a:bf:6a:79:11:29:72:1e:ef:96:c4:08:2f:82:d4:c8:
         4f:d8:6c:2b:e3:9a:55:8d:06:fc:0b:ba:2e:84:81:76:63:34:
         0a:4d:eb:40:5a:38:d9:f2:7d:35:64:cb:22:82:57:cc:a8:79:
         15:51:c0:e7:3b:67:f7:21:80:d0:df:10:d8:66:73:91:8c:06:
         32:9b:1b:cf:20:bd:4f:84:45:83:58:6a:8c:51:d4:5e:92:80:
         eb:21:6a:b7:27:b0:ce:c7:18:43:0f:ed:06:83:cb:76:bc:f6:
         3c:2e:d6:d3:e9:fe:05:6d:9b:c7:d0:dd:79:23:8a:0c:49:0d:
         cf:8c:8b:95:37:1a:4b:59:ef:6a:55:11:bd:d9:ec:fa:38:aa:
         81:98:f0:50:08:bb:e8:39:61:4f:96:fd:41:53:a9:8a:bf:fc:
         d1:4b:44:e7:6b:6e:e4:50:97:6e:bd:1e:80:01:c7:cf:04:c7:
         01:9f:4f:f4:19:d7:90:be:50:b1:b8:2a:79:00:78:2a:9d:12:
         75:08:8f:ce:11:d6:d3:14:39:50:4c:f8:b7:cb:ad:a3:d3:07:
         6e:bf:a7:c1:d8:40:28:51:c3:2f:91:fa:b9:a4:76:f1:59:78:
         cc:5b:62:7b:8a:e6:52:70:8f:89:8d:41:1b:14:9d:42:2f:69:
         a5:02:82:ef:04:1f:db:91:ff:cf:e4:e8:ca:c8:8e:c0:13:c0:
         26:a5:44:56:c6:49:4f:dc:21:81:27:3d:16:18:c1:6f:6a:a3:
         ff:91:aa:1b:6d:3c:6c:a1:4d:2d:1f:63:b3:91:e0:c2:67:99:
         ec:b2:9d:73:1a:f9:9e:24:24:b3:21:4e:eb:48:20:23:a8:86:
         9e:4c:36:bd:c6:56:0c:6f:15:7c:36:24:04:40:19:30:61:87:
         14:4d:36:28:ef:2f:81:55
-----BEGIN CERTIFICATE-----
MIIFYTCCA0mgAwIBAgIBATANBgkqhkiG9w0BAQsFADBJMQswCQYDVQQGEwJJTjEL
MAkGA1UECAwCVlIxDTALBgNVBAcMBEFncmExDTALBgNVBAoMBFZJT1QxDzANBgNV
BAMMBnJvb3RDQTAeFw0yMjEwMjcwOTAyMjlaFw0zMjEwMjQwOTAyMjlaMEcxCzAJ
BgNVBAYTAklOMQswCQYDVQQIDAJWUjENMAsGA1UECgwEVklPVDELMAkGA1UECwwC
SVQxDzANBgNVBAMMBnN1YkNTUjCCAiIwDQYJKoZIhvcNAQEBBQADggIPADCCAgoC
ggIBALywn3f6TlJ+Tr4sWvwW20uy4zRVIajvCYEza0ZpG4BDjAmqp8kLXjbKQhx7
GZJoF1+FUzoiD/w8aTaP82gjY6RQ5fHURmmqwkJ+Sof6cDteFQD+GNZkwCkZDrwH
qN+rB1PXDXVzezwlziuqsD8PHPlFOwp8xpG1HRYnoEFDKWnTZ/mdRKr4x6AY8RAj
Hk5YVWFeUhaI9Wc54CxsA9KgNKGaz6yG1Vb98OeC9zfKK7ocbU1xHpSCOgYyGcjJ
PFs6yDCBtIYZDHM5VS/HL66cG1aKeDPhlSMghNjsrisJlwxtibtcuHHZN9E3s8dZ
khbJ6BHxaoggjNOD/JMGLHZ+Op2aHi71vV7kPC7qR/KgoIfaA32oRqjIF2v68qsc
LoyU5MCxt3FTxqQCqkrvWI9VtwuXI+aZGpFK/H46FXOE1lt0IhVMO0HcyaQZhtEA
5Amz3RrqFr94POuLnk2gl881c0rCRgOQE6bkR5/IY67c51RphmdmsidPfqYmeR+8
MbVnZ0S6yWygPnKchfgWCgOJZqN2rz7SHpCfJJcZY6zBsvjN36/O/F+uLN6OkKfT
BBshnukJX2jsb0HqvOnAI1zXuovfjKdPOTlEbna8pUKXLjWEcsIHo/mxexFUONZo
cmY7HRU/xuHkidKxYBNiGztWmvLhRSuS/auqOvhfh27j1cq1AgMBAAGjVjBUMB0G
A1UdDgQWBBRDwCOtGRjOTLJTMBni8PlniPshRjAfBgNVHSMEGDAWgBTsfR+mRavv
lkfOKBsSThpO/ZuoIDASBgNVHRMBAf8ECDAGAQH/AgEAMA0GCSqGSIb3DQEBCwUA
A4ICAQDHJb8aTWfbZnCwpYWtQeXgsoi4VPIUIdYuwfDeuhpOCenzDCaSHm+9adKd
TDAd/99CbrjUmhFOngRSJXSWGkL0DqP7Z7QW46BKRb1+Rm/wzE9sqfW53PDlFV49
Ai9CvSkpJwuxA5m4ySCUvYy0eF1ziGG0qx3gJp0DjuhYJtVp6ycBSaAmZWm27JKX
etWQeQrgOyXiX2n9K7OpfeWSW381AGU0aHq/ankRKXIe75bECC+C1MhP2Gwr45pV
jQb8C7ouhIF2YzQKTetAWjjZ8n01ZMsiglfMqHkVUcDnO2f3IYDQ3xDYZnORjAYy
mxvPIL1PhEWDWGqMUdRekoDrIWq3J7DOxxhDD+0Gg8t2vPY8LtbT6f4FbZvH0N15
I4oMSQ3PjIuVNxpLWe9qVRG92ez6OKqBmPBQCLvoOWFPlv1BU6mKv/zRS0Tna27k
UJduvR6AAcfPBMcBn0/0GdeQvlCxuCp5AHgqnRJ1CI/OEdbTFDlQTPi3y62j0wdu
v6fB2EAoUcMvkfq5pHbxWXjMW2J7iuZScI+JjUEbFJ1CL2mlAoLvBB/bkf/P5OjK
yI7AE8AmpURWxklP3CGBJz0WGMFvaqP/kaobbTxsoU0tH2OzkeDCZ5nssp1zGvme
JCSzIU7rSCAjqIaeTDa9xlYMbxV8NiQEQBkwYYcUTTYo7y+BVQ==
-----END CERTIFICATE-----
